; Function Attrs: mustprogress nounwind uwtable
define internal fastcc void @_ZN6hermes12_GLOBAL__N_119DependencyExtractor5visitEPNS_6ESTree24ExportAllDeclarationNodeE(ptr noundef nonnull align 8 dereferenceable(145) %this, ptr nocapture noundef readonly %node) unnamed_addr #0 align 2 {
entry:
  %_source = getelementptr inbounds i8, ptr %node, i64 48
  %0 = load ptr, ptr %_source, align 8
  %_exportKind = getelementptr inbounds i8, ptr %node, i64 56
  %1 = load ptr, ptr %_exportKind, align 8
  %agg.tmp.sroa.2.0.call2.sroa_idx = getelementptr inbounds i8, ptr %1, i64 8
  %agg.tmp.sroa.2.0.copyload = load i64, ptr %agg.tmp.sroa.2.0.call2.sroa_idx, align 8
  %cmp.i = icmp eq i64 %agg.tmp.sroa.2.0.copyload, 5
  br i1 %cmp.i, label %if.end.i, label %_ZNK4llvh9StringRef6equalsES0_.exit

if.end.i:                                         ; preds = %entry
  %agg.tmp.sroa.0.0.copyload = load ptr, ptr %1, align 8
  %bcmp = tail call i32 @bcmp(ptr noundef nonnull dereferenceable(5) %agg.tmp.sroa.0.0.copyload, ptr noundef nonnull dereferenceable(5) @.str.24, i64 5)
  %2 = icmp ne i32 %bcmp, 0
  %3 = zext i1 %2 to i32
  br label %_ZNK4llvh9StringRef6equalsES0_.exit

_ZNK4llvh9StringRef6equalsES0_.exit:              ; preds = %if.end.i, %entry
  %not. = phi i32 [ 1, %entry ], [ %3, %if.end.i ]
  %_value = getelementptr inbounds i8, ptr %0, i64 48
  %4 = load ptr, ptr %_value, align 8
  %agg.tmp5.sroa.0.0.copyload = load ptr, ptr %4, align 8
  %agg.tmp5.sroa.2.0.call6.sroa_idx = getelementptr inbounds i8, ptr %4, i64 8
  %agg.tmp5.sroa.2.0.copyload = load i64, ptr %agg.tmp5.sroa.2.0.call6.sroa_idx, align 8
  tail call fastcc void @_ZN6hermes12_GLOBAL__N_119DependencyExtractor13addDependencyEN4llvh9StringRefENS_14DependencyKindE(ptr noundef nonnull align 8 dereferenceable(145) %this, ptr %agg.tmp5.sroa.0.0.copyload, i64 %agg.tmp5.sroa.2.0.copyload, i32 noundef %not.)
  %5 = load ptr, ptr %_source, align 8
  tail call fastcc void @_ZN6hermes6ESTree24RecursiveVisitorDispatchINS_12_GLOBAL__N_119DependencyExtractorELb1EE5visitERS3_PNS0_4NodeES7_(ptr noundef nonnull align 8 dereferenceable(145) %this, ptr noundef %5)
  ret void
}